target datalayout = "e-m:e-p270:32:32-p271:32:32-p272:64:64-i64:64-i128:128-f80:128-n8:16:32:64-S128"
target triple = "x86_64-pc-linux-gnu"

%"struct.Luau::FValue" = type { i8, i8, ptr, ptr }
%"struct.Luau::CodeGen::BuiltinImplResult" = type { i32, i32 }
%"struct.Luau::CodeGen::IrOp" = type { i32 }

@_ZN5FFlag22LuauVectorLibNativeDotE = dso_local global %"struct.Luau::FValue" zeroinitializer, align 8

; Function Attrs: alwaysinline mustprogress nounwind uwtable
define linkonce_odr dso_local noundef zeroext i1 @_ZNK4Luau6FValueIbEcvbEv(ptr noundef nonnull align 8 dereferenceable(24) %0) #5 comdat align 2 {
  %2 = alloca ptr, align 8
  store ptr %0, ptr %2, align 8, !tbaa !4
  %3 = load ptr, ptr %2, align 8
  %4 = getelementptr inbounds nuw %"struct.Luau::FValue", ptr %3, i32 0, i32 0
  %5 = load i8, ptr %4, align 8, !tbaa !15, !range !13, !noundef !14
  %6 = trunc i8 %5 to i1
  ret i1 %6
}

; Function Attrs: mustprogress nounwind uwtable
define linkonce_odr dso_local void @_ZN4Luau7CodeGen4IrOpC2Ev(ptr noundef nonnull align 4 dereferenceable(4) %0) unnamed_addr #1 comdat align 2 {
  %2 = alloca ptr, align 8
  store ptr %0, ptr %2, align 8, !tbaa !164
  %3 = load ptr, ptr %2, align 8
  %4 = load i32, ptr %3, align 4
  %5 = and i32 %4, -16
  %6 = or i32 %5, 0
  store i32 %6, ptr %3, align 4
  %7 = load i32, ptr %3, align 4
  %8 = and i32 %7, 15
  %9 = or i32 %8, 0
  store i32 %9, ptr %3, align 4
  ret void
}

; Function Attrs: mustprogress uwtable
define internal i64 @_ZN4Luau7CodeGenL31translateBuiltinVectorMagnitudeERNS0_9IrBuilderEiiiNS0_4IrOpES3_ii(ptr noundef nonnull align 8 dereferenceable(752) %0, i32 noundef %1, i32 noundef %2, i32 noundef %3, i32 %4, i32 %5, i32 noundef %6, i32 noundef %7) #2 {
  %9 = alloca %"struct.Luau::CodeGen::BuiltinImplResult", align 4
  %10 = alloca %"struct.Luau::CodeGen::IrOp", align 4
  %11 = alloca %"struct.Luau::CodeGen::IrOp", align 4
  %12 = alloca ptr, align 8
  %13 = alloca i32, align 4
  %14 = alloca i32, align 4
  %15 = alloca i32, align 4
  %16 = alloca i32, align 4
  %17 = alloca i32, align 4
  %18 = alloca %"struct.Luau::CodeGen::IrOp", align 4
  %19 = alloca i32, align 4
  %20 = alloca %"struct.Luau::CodeGen::IrOp", align 4
  %21 = alloca %"struct.Luau::CodeGen::IrOp", align 4
  %22 = alloca %"struct.Luau::CodeGen::IrOp", align 4
  %23 = alloca %"struct.Luau::CodeGen::IrOp", align 4
  %24 = alloca %"struct.Luau::CodeGen::IrOp", align 4
  %25 = alloca %"struct.Luau::CodeGen::IrOp", align 4
  %26 = alloca %"struct.Luau::CodeGen::IrOp", align 4
  %27 = alloca %"struct.Luau::CodeGen::IrOp", align 4
  %28 = alloca %"struct.Luau::CodeGen::IrOp", align 4
  %29 = alloca %"struct.Luau::CodeGen::IrOp", align 4
  %30 = alloca %"struct.Luau::CodeGen::IrOp", align 4
  %31 = alloca %"struct.Luau::CodeGen::IrOp", align 4
  %32 = alloca %"struct.Luau::CodeGen::IrOp", align 4
  %33 = alloca %"struct.Luau::CodeGen::IrOp", align 4
  %34 = alloca %"struct.Luau::CodeGen::IrOp", align 4
  %35 = alloca %"struct.Luau::CodeGen::IrOp", align 4
  %36 = alloca %"struct.Luau::CodeGen::IrOp", align 4
  %37 = alloca %"struct.Luau::CodeGen::IrOp", align 4
  %38 = alloca %"struct.Luau::CodeGen::IrOp", align 4
  %39 = alloca %"struct.Luau::CodeGen::IrOp", align 4
  %40 = alloca %"struct.Luau::CodeGen::IrOp", align 4
  %41 = alloca %"struct.Luau::CodeGen::IrOp", align 4
  %42 = alloca %"struct.Luau::CodeGen::IrOp", align 4
  %43 = alloca %"struct.Luau::CodeGen::IrOp", align 4
  %44 = alloca %"struct.Luau::CodeGen::IrOp", align 4
  %45 = alloca %"struct.Luau::CodeGen::IrOp", align 4
  %46 = alloca %"struct.Luau::CodeGen::IrOp", align 4
  %47 = alloca %"struct.Luau::CodeGen::IrOp", align 4
  %48 = alloca %"struct.Luau::CodeGen::IrOp", align 4
  %49 = alloca %"struct.Luau::CodeGen::IrOp", align 4
  %50 = alloca %"struct.Luau::CodeGen::IrOp", align 4
  %51 = alloca %"struct.Luau::CodeGen::IrOp", align 4
  %52 = alloca %"struct.Luau::CodeGen::IrOp", align 4
  %53 = alloca %"struct.Luau::CodeGen::IrOp", align 4
  %54 = alloca %"struct.Luau::CodeGen::IrOp", align 4
  %55 = alloca %"struct.Luau::CodeGen::IrOp", align 4
  %56 = alloca %"struct.Luau::CodeGen::IrOp", align 4
  %57 = alloca %"struct.Luau::CodeGen::IrOp", align 4
  %58 = alloca %"struct.Luau::CodeGen::IrOp", align 4
  %59 = alloca %"struct.Luau::CodeGen::IrOp", align 4
  %60 = getelementptr inbounds nuw %"struct.Luau::CodeGen::IrOp", ptr %10, i32 0, i32 0
  store i32 %4, ptr %60, align 4
  %61 = getelementptr inbounds nuw %"struct.Luau::CodeGen::IrOp", ptr %11, i32 0, i32 0
  store i32 %5, ptr %61, align 4
  store ptr %0, ptr %12, align 8, !tbaa !20
  store i32 %1, ptr %13, align 4, !tbaa !22
  store i32 %2, ptr %14, align 4, !tbaa !22
  store i32 %3, ptr %15, align 4, !tbaa !22
  store i32 %6, ptr %16, align 4, !tbaa !22
  store i32 %7, ptr %17, align 4, !tbaa !22
  call void @llvm.lifetime.start.p0(i64 4, ptr %18) #11
  %62 = load ptr, ptr %12, align 8, !tbaa !20
  %63 = load i32, ptr %15, align 4, !tbaa !22
  %64 = trunc i32 %63 to i8
  %65 = call i32 @_ZN4Luau7CodeGen9IrBuilder5vmRegEh(ptr noundef nonnull align 8 dereferenceable(752) %62, i8 noundef zeroext %64)
  %66 = getelementptr inbounds nuw %"struct.Luau::CodeGen::IrOp", ptr %18, i32 0, i32 0
  store i32 %65, ptr %66, align 4
  %67 = load i32, ptr %13, align 4, !tbaa !22
  %68 = icmp ne i32 %67, 1
  br i1 %68, label %76, label %69

69:                                               ; preds = %8
  %70 = load i32, ptr %16, align 4, !tbaa !22
  %71 = icmp sgt i32 %70, 1
  br i1 %71, label %76, label %72

72:                                               ; preds = %69
  %73 = load i32, ptr %18, align 4
  %74 = and i32 %73, 15
  %75 = icmp eq i32 %74, 2
  br i1 %75, label %76, label %79

76:                                               ; preds = %72, %69, %8
  %77 = getelementptr inbounds nuw %"struct.Luau::CodeGen::BuiltinImplResult", ptr %9, i32 0, i32 0
  store i32 0, ptr %77, align 4, !tbaa !24
  %78 = getelementptr inbounds nuw %"struct.Luau::CodeGen::BuiltinImplResult", ptr %9, i32 0, i32 1
  store i32 -1, ptr %78, align 4, !tbaa !27
  store i32 1, ptr %19, align 4
  br label %209

79:                                               ; preds = %72
  %80 = load ptr, ptr %12, align 8, !tbaa !20
  call void @llvm.memcpy.p0.p0.i64(ptr align 4 %20, ptr align 4 %18, i64 4, i1 false), !tbaa.struct !28
  %81 = load ptr, ptr %12, align 8, !tbaa !20
  %82 = load i32, ptr %17, align 4, !tbaa !22
  %83 = call i32 @_ZN4Luau7CodeGen9IrBuilder6vmExitEj(ptr noundef nonnull align 8 dereferenceable(752) %81, i32 noundef %82)
  %84 = getelementptr inbounds nuw %"struct.Luau::CodeGen::IrOp", ptr %21, i32 0, i32 0
  store i32 %83, ptr %84, align 4
  %85 = getelementptr inbounds nuw %"struct.Luau::CodeGen::IrOp", ptr %20, i32 0, i32 0
  %86 = load i32, ptr %85, align 4
  %87 = getelementptr inbounds nuw %"struct.Luau::CodeGen::IrOp", ptr %21, i32 0, i32 0
  %88 = load i32, ptr %87, align 4
  call void @_ZN4Luau7CodeGen9IrBuilder15loadAndCheckTagENS0_4IrOpEhS2_(ptr noundef nonnull align 8 dereferenceable(752) %80, i32 %86, i8 noundef zeroext 4, i32 %88)
  call void @llvm.lifetime.start.p0(i64 4, ptr %22) #11
  call void @_ZN4Luau7CodeGen4IrOpC2Ev(ptr noundef nonnull align 4 dereferenceable(4) %22)
  %89 = call noundef zeroext i1 @_ZNK4Luau6FValueIbEcvbEv(ptr noundef nonnull align 8 dereferenceable(24) @_ZN5FFlag22LuauVectorLibNativeDotE)
  br i1 %89, label %90, label %108

90:                                               ; preds = %79
  call void @llvm.lifetime.start.p0(i64 4, ptr %23) #11
  %91 = load ptr, ptr %12, align 8, !tbaa !20
  call void @llvm.memcpy.p0.p0.i64(ptr align 4 %24, ptr align 4 %18, i64 4, i1 false), !tbaa.struct !28
  %92 = load ptr, ptr %12, align 8, !tbaa !20
  %93 = call i32 @_ZN4Luau7CodeGen9IrBuilder8constIntEi(ptr noundef nonnull align 8 dereferenceable(752) %92, i32 noundef 0)
  %94 = getelementptr inbounds nuw %"struct.Luau::CodeGen::IrOp", ptr %25, i32 0, i32 0
  store i32 %93, ptr %94, align 4
  %95 = getelementptr inbounds nuw %"struct.Luau::CodeGen::IrOp", ptr %24, i32 0, i32 0
  %96 = load i32, ptr %95, align 4
  %97 = getelementptr inbounds nuw %"struct.Luau::CodeGen::IrOp", ptr %25, i32 0, i32 0
  %98 = load i32, ptr %97, align 4
  %99 = call i32 @_ZN4Luau7CodeGen9IrBuilder4instENS0_5IrCmdENS0_4IrOpES3_(ptr noundef nonnull align 8 dereferenceable(752) %91, i8 noundef zeroext 6, i32 %96, i32 %98)
  %100 = getelementptr inbounds nuw %"struct.Luau::CodeGen::IrOp", ptr %23, i32 0, i32 0
  store i32 %99, ptr %100, align 4
  call void @llvm.lifetime.start.p0(i64 4, ptr %26) #11
  %101 = load ptr, ptr %12, align 8, !tbaa !20
  call void @llvm.memcpy.p0.p0.i64(ptr align 4 %27, ptr align 4 %23, i64 4, i1 false), !tbaa.struct !28
  call void @llvm.memcpy.p0.p0.i64(ptr align 4 %28, ptr align 4 %23, i64 4, i1 false), !tbaa.struct !28
  %102 = getelementptr inbounds nuw %"struct.Luau::CodeGen::IrOp", ptr %27, i32 0, i32 0
  %103 = load i32, ptr %102, align 4
  %104 = getelementptr inbounds nuw %"struct.Luau::CodeGen::IrOp", ptr %28, i32 0, i32 0
  %105 = load i32, ptr %104, align 4
  %106 = call i32 @_ZN4Luau7CodeGen9IrBuilder4instENS0_5IrCmdENS0_4IrOpES3_(ptr noundef nonnull align 8 dereferenceable(752) %101, i8 noundef zeroext 43, i32 %103, i32 %105)
  %107 = getelementptr inbounds nuw %"struct.Luau::CodeGen::IrOp", ptr %26, i32 0, i32 0
  store i32 %106, ptr %107, align 4
  call void @llvm.memcpy.p0.p0.i64(ptr align 4 %22, ptr align 4 %26, i64 4, i1 false), !tbaa.struct !28
  call void @llvm.lifetime.end.p0(i64 4, ptr %26) #11
  call void @llvm.lifetime.end.p0(i64 4, ptr %23) #11
  br label %174

108:                                              ; preds = %79
  call void @llvm.lifetime.start.p0(i64 4, ptr %29) #11
  %109 = load ptr, ptr %12, align 8, !tbaa !20
  call void @llvm.memcpy.p0.p0.i64(ptr align 4 %30, ptr align 4 %18, i64 4, i1 false), !tbaa.struct !28
  %110 = load ptr, ptr %12, align 8, !tbaa !20
  %111 = call i32 @_ZN4Luau7CodeGen9IrBuilder8constIntEi(ptr noundef nonnull align 8 dereferenceable(752) %110, i32 noundef 0)
  %112 = getelementptr inbounds nuw %"struct.Luau::CodeGen::IrOp", ptr %31, i32 0, i32 0
  store i32 %111, ptr %112, align 4
  %113 = getelementptr inbounds nuw %"struct.Luau::CodeGen::IrOp", ptr %30, i32 0, i32 0
  %114 = load i32, ptr %113, align 4
  %115 = getelementptr inbounds nuw %"struct.Luau::CodeGen::IrOp", ptr %31, i32 0, i32 0
  %116 = load i32, ptr %115, align 4
  %117 = call i32 @_ZN4Luau7CodeGen9IrBuilder4instENS0_5IrCmdENS0_4IrOpES3_(ptr noundef nonnull align 8 dereferenceable(752) %109, i8 noundef zeroext 5, i32 %114, i32 %116)
  %118 = getelementptr inbounds nuw %"struct.Luau::CodeGen::IrOp", ptr %29, i32 0, i32 0
  store i32 %117, ptr %118, align 4
  call void @llvm.lifetime.start.p0(i64 4, ptr %32) #11
  %119 = load ptr, ptr %12, align 8, !tbaa !20
  call void @llvm.memcpy.p0.p0.i64(ptr align 4 %33, ptr align 4 %18, i64 4, i1 false), !tbaa.struct !28
  %120 = load ptr, ptr %12, align 8, !tbaa !20
  %121 = call i32 @_ZN4Luau7CodeGen9IrBuilder8constIntEi(ptr noundef nonnull align 8 dereferenceable(752) %120, i32 noundef 4)
  %122 = getelementptr inbounds nuw %"struct.Luau::CodeGen::IrOp", ptr %34, i32 0, i32 0
  store i32 %121, ptr %122, align 4
  %123 = getelementptr inbounds nuw %"struct.Luau::CodeGen::IrOp", ptr %33, i32 0, i32 0
  %124 = load i32, ptr %123, align 4
  %125 = getelementptr inbounds nuw %"struct.Luau::CodeGen::IrOp", ptr %34, i32 0, i32 0
  %126 = load i32, ptr %125, align 4
  %127 = call i32 @_ZN4Luau7CodeGen9IrBuilder4instENS0_5IrCmdENS0_4IrOpES3_(ptr noundef nonnull align 8 dereferenceable(752) %119, i8 noundef zeroext 5, i32 %124, i32 %126)
  %128 = getelementptr inbounds nuw %"struct.Luau::CodeGen::IrOp", ptr %32, i32 0, i32 0
  store i32 %127, ptr %128, align 4
  call void @llvm.lifetime.start.p0(i64 4, ptr %35) #11
  %129 = load ptr, ptr %12, align 8, !tbaa !20
  call void @llvm.memcpy.p0.p0.i64(ptr align 4 %36, ptr align 4 %18, i64 4, i1 false), !tbaa.struct !28
  %130 = load ptr, ptr %12, align 8, !tbaa !20
  %131 = call i32 @_ZN4Luau7CodeGen9IrBuilder8constIntEi(ptr noundef nonnull align 8 dereferenceable(752) %130, i32 noundef 8)
  %132 = getelementptr inbounds nuw %"struct.Luau::CodeGen::IrOp", ptr %37, i32 0, i32 0
  store i32 %131, ptr %132, align 4
  %133 = getelementptr inbounds nuw %"struct.Luau::CodeGen::IrOp", ptr %36, i32 0, i32 0
  %134 = load i32, ptr %133, align 4
  %135 = getelementptr inbounds nuw %"struct.Luau::CodeGen::IrOp", ptr %37, i32 0, i32 0
  %136 = load i32, ptr %135, align 4
  %137 = call i32 @_ZN4Luau7CodeGen9IrBuilder4instENS0_5IrCmdENS0_4IrOpES3_(ptr noundef nonnull align 8 dereferenceable(752) %129, i8 noundef zeroext 5, i32 %134, i32 %136)
  %138 = getelementptr inbounds nuw %"struct.Luau::CodeGen::IrOp", ptr %35, i32 0, i32 0
  store i32 %137, ptr %138, align 4
  call void @llvm.lifetime.start.p0(i64 4, ptr %38) #11
  %139 = load ptr, ptr %12, align 8, !tbaa !20
  call void @llvm.memcpy.p0.p0.i64(ptr align 4 %39, ptr align 4 %29, i64 4, i1 false), !tbaa.struct !28
  call void @llvm.memcpy.p0.p0.i64(ptr align 4 %40, ptr align 4 %29, i64 4, i1 false), !tbaa.struct !28
  %140 = getelementptr inbounds nuw %"struct.Luau::CodeGen::IrOp", ptr %39, i32 0, i32 0
  %141 = load i32, ptr %140, align 4
  %142 = getelementptr inbounds nuw %"struct.Luau::CodeGen::IrOp", ptr %40, i32 0, i32 0
  %143 = load i32, ptr %142, align 4
  %144 = call i32 @_ZN4Luau7CodeGen9IrBuilder4instENS0_5IrCmdENS0_4IrOpES3_(ptr noundef nonnull align 8 dereferenceable(752) %139, i8 noundef zeroext 24, i32 %141, i32 %143)
  %145 = getelementptr inbounds nuw %"struct.Luau::CodeGen::IrOp", ptr %38, i32 0, i32 0
  store i32 %144, ptr %145, align 4
  call void @llvm.lifetime.start.p0(i64 4, ptr %41) #11
  %146 = load ptr, ptr %12, align 8, !tbaa !20
  call void @llvm.memcpy.p0.p0.i64(ptr align 4 %42, ptr align 4 %32, i64 4, i1 false), !tbaa.struct !28
  call void @llvm.memcpy.p0.p0.i64(ptr align 4 %43, ptr align 4 %32, i64 4, i1 false), !tbaa.struct !28
  %147 = getelementptr inbounds nuw %"struct.Luau::CodeGen::IrOp", ptr %42, i32 0, i32 0
  %148 = load i32, ptr %147, align 4
  %149 = getelementptr inbounds nuw %"struct.Luau::CodeGen::IrOp", ptr %43, i32 0, i32 0
  %150 = load i32, ptr %149, align 4
  %151 = call i32 @_ZN4Luau7CodeGen9IrBuilder4instENS0_5IrCmdENS0_4IrOpES3_(ptr noundef nonnull align 8 dereferenceable(752) %146, i8 noundef zeroext 24, i32 %148, i32 %150)
  %152 = getelementptr inbounds nuw %"struct.Luau::CodeGen::IrOp", ptr %41, i32 0, i32 0
  store i32 %151, ptr %152, align 4
  call void @llvm.lifetime.start.p0(i64 4, ptr %44) #11
  %153 = load ptr, ptr %12, align 8, !tbaa !20
  call void @llvm.memcpy.p0.p0.i64(ptr align 4 %45, ptr align 4 %35, i64 4, i1 false), !tbaa.struct !28
  call void @llvm.memcpy.p0.p0.i64(ptr align 4 %46, ptr align 4 %35, i64 4, i1 false), !tbaa.struct !28
  %154 = getelementptr inbounds nuw %"struct.Luau::CodeGen::IrOp", ptr %45, i32 0, i32 0
  %155 = load i32, ptr %154, align 4
  %156 = getelementptr inbounds nuw %"struct.Luau::CodeGen::IrOp", ptr %46, i32 0, i32 0
  %157 = load i32, ptr %156, align 4
  %158 = call i32 @_ZN4Luau7CodeGen9IrBuilder4instENS0_5IrCmdENS0_4IrOpES3_(ptr noundef nonnull align 8 dereferenceable(752) %153, i8 noundef zeroext 24, i32 %155, i32 %157)
  %159 = getelementptr inbounds nuw %"struct.Luau::CodeGen::IrOp", ptr %44, i32 0, i32 0
  store i32 %158, ptr %159, align 4
  call void @llvm.lifetime.start.p0(i64 4, ptr %47) #11
  %160 = load ptr, ptr %12, align 8, !tbaa !20
  %161 = load ptr, ptr %12, align 8, !tbaa !20
  call void @llvm.memcpy.p0.p0.i64(ptr align 4 %49, ptr align 4 %38, i64 4, i1 false), !tbaa.struct !28
  call void @llvm.memcpy.p0.p0.i64(ptr align 4 %50, ptr align 4 %41, i64 4, i1 false), !tbaa.struct !28
  %162 = getelementptr inbounds nuw %"struct.Luau::CodeGen::IrOp", ptr %49, i32 0, i32 0
  %163 = load i32, ptr %162, align 4
  %164 = getelementptr inbounds nuw %"struct.Luau::CodeGen::IrOp", ptr %50, i32 0, i32 0
  %165 = load i32, ptr %164, align 4
  %166 = call i32 @_ZN4Luau7CodeGen9IrBuilder4instENS0_5IrCmdENS0_4IrOpES3_(ptr noundef nonnull align 8 dereferenceable(752) %161, i8 noundef zeroext 22, i32 %163, i32 %165)
  %167 = getelementptr inbounds nuw %"struct.Luau::CodeGen::IrOp", ptr %48, i32 0, i32 0
  store i32 %166, ptr %167, align 4
  call void @llvm.memcpy.p0.p0.i64(ptr align 4 %51, ptr align 4 %44, i64 4, i1 false), !tbaa.struct !28
  %168 = getelementptr inbounds nuw %"struct.Luau::CodeGen::IrOp", ptr %48, i32 0, i32 0
  %169 = load i32, ptr %168, align 4
  %170 = getelementptr inbounds nuw %"struct.Luau::CodeGen::IrOp", ptr %51, i32 0, i32 0
  %171 = load i32, ptr %170, align 4
  %172 = call i32 @_ZN4Luau7CodeGen9IrBuilder4instENS0_5IrCmdENS0_4IrOpES3_(ptr noundef nonnull align 8 dereferenceable(752) %160, i8 noundef zeroext 22, i32 %169, i32 %171)
  %173 = getelementptr inbounds nuw %"struct.Luau::CodeGen::IrOp", ptr %47, i32 0, i32 0
  store i32 %172, ptr %173, align 4
  call void @llvm.memcpy.p0.p0.i64(ptr align 4 %22, ptr align 4 %47, i64 4, i1 false), !tbaa.struct !28
  call void @llvm.lifetime.end.p0(i64 4, ptr %47) #11
  call void @llvm.lifetime.end.p0(i64 4, ptr %44) #11
  call void @llvm.lifetime.end.p0(i64 4, ptr %41) #11
  call void @llvm.lifetime.end.p0(i64 4, ptr %38) #11
  call void @llvm.lifetime.end.p0(i64 4, ptr %35) #11
  call void @llvm.lifetime.end.p0(i64 4, ptr %32) #11
  call void @llvm.lifetime.end.p0(i64 4, ptr %29) #11
  br label %174

174:                                              ; preds = %108, %90
  call void @llvm.lifetime.start.p0(i64 4, ptr %52) #11
  %175 = load ptr, ptr %12, align 8, !tbaa !20
  call void @llvm.memcpy.p0.p0.i64(ptr align 4 %53, ptr align 4 %22, i64 4, i1 false), !tbaa.struct !28
  %176 = getelementptr inbounds nuw %"struct.Luau::CodeGen::IrOp", ptr %53, i32 0, i32 0
  %177 = load i32, ptr %176, align 4
  %178 = call i32 @_ZN4Luau7CodeGen9IrBuilder4instENS0_5IrCmdENS0_4IrOpE(ptr noundef nonnull align 8 dereferenceable(752) %175, i8 noundef zeroext 34, i32 %177)
  %179 = getelementptr inbounds nuw %"struct.Luau::CodeGen::IrOp", ptr %52, i32 0, i32 0
  store i32 %178, ptr %179, align 4
  %180 = load ptr, ptr %12, align 8, !tbaa !20
  %181 = load ptr, ptr %12, align 8, !tbaa !20
  %182 = load i32, ptr %14, align 4, !tbaa !22
  %183 = trunc i32 %182 to i8
  %184 = call i32 @_ZN4Luau7CodeGen9IrBuilder5vmRegEh(ptr noundef nonnull align 8 dereferenceable(752) %181, i8 noundef zeroext %183)
  %185 = getelementptr inbounds nuw %"struct.Luau::CodeGen::IrOp", ptr %54, i32 0, i32 0
  store i32 %184, ptr %185, align 4
  call void @llvm.memcpy.p0.p0.i64(ptr align 4 %55, ptr align 4 %52, i64 4, i1 false), !tbaa.struct !28
  %186 = getelementptr inbounds nuw %"struct.Luau::CodeGen::IrOp", ptr %54, i32 0, i32 0
  %187 = load i32, ptr %186, align 4
  %188 = getelementptr inbounds nuw %"struct.Luau::CodeGen::IrOp", ptr %55, i32 0, i32 0
  %189 = load i32, ptr %188, align 4
  %190 = call i32 @_ZN4Luau7CodeGen9IrBuilder4instENS0_5IrCmdENS0_4IrOpES3_(ptr noundef nonnull align 8 dereferenceable(752) %180, i8 noundef zeroext 15, i32 %187, i32 %189)
  %191 = getelementptr inbounds nuw %"struct.Luau::CodeGen::IrOp", ptr %56, i32 0, i32 0
  store i32 %190, ptr %191, align 4
  %192 = load ptr, ptr %12, align 8, !tbaa !20
  %193 = load ptr, ptr %12, align 8, !tbaa !20
  %194 = load i32, ptr %14, align 4, !tbaa !22
  %195 = trunc i32 %194 to i8
  %196 = call i32 @_ZN4Luau7CodeGen9IrBuilder5vmRegEh(ptr noundef nonnull align 8 dereferenceable(752) %193, i8 noundef zeroext %195)
  %197 = getelementptr inbounds nuw %"struct.Luau::CodeGen::IrOp", ptr %57, i32 0, i32 0
  store i32 %196, ptr %197, align 4
  %198 = load ptr, ptr %12, align 8, !tbaa !20
  %199 = call i32 @_ZN4Luau7CodeGen9IrBuilder8constTagEh(ptr noundef nonnull align 8 dereferenceable(752) %198, i8 noundef zeroext 3)
  %200 = getelementptr inbounds nuw %"struct.Luau::CodeGen::IrOp", ptr %58, i32 0, i32 0
  store i32 %199, ptr %200, align 4
  %201 = getelementptr inbounds nuw %"struct.Luau::CodeGen::IrOp", ptr %57, i32 0, i32 0
  %202 = load i32, ptr %201, align 4
  %203 = getelementptr inbounds nuw %"struct.Luau::CodeGen::IrOp", ptr %58, i32 0, i32 0
  %204 = load i32, ptr %203, align 4
  %205 = call i32 @_ZN4Luau7CodeGen9IrBuilder4instENS0_5IrCmdENS0_4IrOpES3_(ptr noundef nonnull align 8 dereferenceable(752) %192, i8 noundef zeroext 12, i32 %202, i32 %204)
  %206 = getelementptr inbounds nuw %"struct.Luau::CodeGen::IrOp", ptr %59, i32 0, i32 0
  store i32 %205, ptr %206, align 4
  %207 = getelementptr inbounds nuw %"struct.Luau::CodeGen::BuiltinImplResult", ptr %9, i32 0, i32 0
  store i32 2, ptr %207, align 4, !tbaa !24
  %208 = getelementptr inbounds nuw %"struct.Luau::CodeGen::BuiltinImplResult", ptr %9, i32 0, i32 1
  store i32 1, ptr %208, align 4, !tbaa !27
  store i32 1, ptr %19, align 4
  call void @llvm.lifetime.end.p0(i64 4, ptr %52) #11
  call void @llvm.lifetime.end.p0(i64 4, ptr %22) #11
  br label %209

209:                                              ; preds = %174, %76
  call void @llvm.lifetime.end.p0(i64 4, ptr %18) #11
  %210 = load i64, ptr %9, align 4
  ret i64 %210
}